target datalayout = "e-m:e-p270:32:32-p271:32:32-p272:64:64-i64:64-i128:128-f80:128-n8:16:32:64-S128"
target triple = "x86_64-pc-linux-gnu"

@.str.9 = private unnamed_addr constant [36 x i8] c"../openssl/test/sm2_internal_test.c\00", align 1
@fake_rand_bytes = internal global ptr null, align 8
@fake_rand_bytes_offset = internal global i64 0, align 8
@fake_rand_size = internal global i64 0, align 8
@.str.56 = private unnamed_addr constant [54 x i8] c"fake_rand_bytes = OPENSSL_hexstr2buf(hex_bytes, NULL)\00", align 1

; Function Attrs: nounwind uwtable
define internal i32 @start_fake_rand(ptr noundef %0) #0 {
  %2 = alloca i32, align 4
  %3 = alloca ptr, align 8
  store ptr %0, ptr %3, align 8, !tbaa !13
  %4 = load ptr, ptr @fake_rand_bytes, align 8, !tbaa !13
  call void @CRYPTO_free(ptr noundef %4, ptr noundef @.str.9, i32 noundef 56)
  store i64 0, ptr @fake_rand_bytes_offset, align 8, !tbaa !21
  %5 = load ptr, ptr %3, align 8, !tbaa !13
  %6 = call i64 @strlen(ptr noundef %5) #5
  %7 = udiv i64 %6, 2
  store i64 %7, ptr @fake_rand_size, align 8, !tbaa !21
  %8 = load ptr, ptr %3, align 8, !tbaa !13
  %9 = call ptr @OPENSSL_hexstr2buf(ptr noundef %8, ptr noundef null)
  store ptr %9, ptr @fake_rand_bytes, align 8, !tbaa !13
  %10 = call i32 @test_ptr(ptr noundef @.str.9, i32 noundef 59, ptr noundef @.str.56, ptr noundef %9)
  %11 = icmp ne i32 %10, 0
  br i1 %11, label %13, label %12

12:                                               ; preds = %1
  store i32 0, ptr %2, align 4
  br label %14

13:                                               ; preds = %1
  call void @fake_rand_set_public_private_callbacks(ptr noundef null, ptr noundef @get_faked_bytes)
  store i32 1, ptr %2, align 4
  br label %14

14:                                               ; preds = %13, %12
  %15 = load i32, ptr %2, align 4
  ret i32 %15
}