; Function Attrs: nounwind uwtable
define internal fastcc void @start_fake_rand(ptr noundef %0) unnamed_addr #0 {
  %2 = load ptr, ptr @fake_rand_bytes, align 8, !tbaa !13
  tail call void @CRYPTO_free(ptr noundef %2, ptr noundef nonnull @.str.9, i32 noundef 56) #4
  store i64 0, ptr @fake_rand_bytes_offset, align 8, !tbaa !11
  %3 = tail call i64 @strlen(ptr noundef nonnull dereferenceable(1) %0) #5
  %4 = lshr i64 %3, 1
  store i64 %4, ptr @fake_rand_size, align 8, !tbaa !11
  %5 = tail call ptr @OPENSSL_hexstr2buf(ptr noundef nonnull %0, ptr noundef null) #4
  store ptr %5, ptr @fake_rand_bytes, align 8, !tbaa !13
  %6 = tail call i32 @test_ptr(ptr noundef nonnull @.str.9, i32 noundef 59, ptr noundef nonnull @.str.56, ptr noundef %5) #4
  %.not = icmp eq i32 %6, 0
  br i1 %.not, label %8, label %7

7:                                                ; preds = %1
  tail call void @fake_rand_set_public_private_callbacks(ptr noundef null, ptr noundef nonnull @get_faked_bytes) #4
  br label %8

8:                                                ; preds = %1, %7
  ret void
}